; Function Attrs: nounwind uwtable
define internal void @run_lut3d(ptr noundef readonly captures(none) %0, ptr noundef readonly captures(none) %1, i32 noundef %2, i32 noundef %3, ptr noundef readonly captures(none) %4) #0 {
  %6 = alloca %struct.SwsImg, align 8
  %7 = alloca %struct.SwsImg, align 8
  %8 = getelementptr inbounds nuw i8, ptr %4, i64 120
  %9 = load ptr, ptr %8, align 8, !tbaa !15
  call void @llvm.lifetime.start.p0(i64 56, ptr nonnull %6) #12
  tail call void @llvm.experimental.noalias.scope.decl(metadata !120)
  call void @llvm.memcpy.p0.p0.i64(ptr noundef nonnull align 8 dereferenceable(56) %6, ptr noundef nonnull readonly align 8 dereferenceable(56) %1, i64 56, i1 false), !tbaa.struct !113
  %10 = getelementptr inbounds nuw i8, ptr %6, i64 8
  %11 = getelementptr inbounds nuw i8, ptr %6, i64 40
  %12 = load i32, ptr %6, align 8
  br label %13

13:                                               ; preds = %ff_fmt_vshift.exit.i, %5
  %indvars.iv.i = phi i64 [ 0, %5 ], [ %indvars.iv.next.i, %ff_fmt_vshift.exit.i ]
  %14 = getelementptr inbounds nuw [4 x ptr], ptr %10, i64 0, i64 %indvars.iv.i
  %15 = load ptr, ptr %14, align 8, !tbaa !75, !alias.scope !120
  %.not.i = icmp eq ptr %15, null
  br i1 %.not.i, label %ff_sws_img_shift.exit, label %16

16:                                               ; preds = %13
  %17 = tail call ptr @av_pix_fmt_desc_get(i32 noundef %12) #12, !noalias !120
  %18 = trunc i64 %indvars.iv.i to i32
  %19 = add i32 %18, -1
  %or.cond.i.i = icmp ult i32 %19, 2
  br i1 %or.cond.i.i, label %20, label %ff_fmt_vshift.exit.i

20:                                               ; preds = %16
  %21 = getelementptr inbounds nuw i8, ptr %17, i64 10
  %22 = load i8, ptr %21, align 2, !tbaa !105, !noalias !120
  %23 = zext i8 %22 to i32
  br label %ff_fmt_vshift.exit.i

ff_fmt_vshift.exit.i:                             ; preds = %20, %16
  %24 = phi i32 [ %23, %20 ], [ 0, %16 ]
  %25 = ashr i32 %2, %24
  %26 = getelementptr inbounds nuw [4 x i32], ptr %11, i64 0, i64 %indvars.iv.i
  %27 = load i32, ptr %26, align 4, !tbaa !42, !alias.scope !120
  %28 = mul nsw i32 %25, %27
  %29 = sext i32 %28 to i64
  %30 = getelementptr inbounds i8, ptr %15, i64 %29
  store ptr %30, ptr %14, align 8, !tbaa !75, !alias.scope !120
  %indvars.iv.next.i = add nuw nsw i64 %indvars.iv.i, 1
  %exitcond.not.i = icmp eq i64 %indvars.iv.next.i, 4
  br i1 %exitcond.not.i, label %ff_sws_img_shift.exit, label %13, !llvm.loop !114

ff_sws_img_shift.exit:                            ; preds = %13, %ff_fmt_vshift.exit.i
  call void @llvm.lifetime.start.p0(i64 56, ptr nonnull %7) #12
  tail call void @llvm.experimental.noalias.scope.decl(metadata !123)
  call void @llvm.memcpy.p0.p0.i64(ptr noundef nonnull align 8 dereferenceable(56) %7, ptr noundef nonnull readonly align 8 dereferenceable(56) %0, i64 56, i1 false), !tbaa.struct !113
  %31 = getelementptr inbounds nuw i8, ptr %7, i64 8
  %32 = getelementptr inbounds nuw i8, ptr %7, i64 40
  %33 = load i32, ptr %7, align 8
  br label %34

34:                                               ; preds = %ff_fmt_vshift.exit.i10, %ff_sws_img_shift.exit
  %indvars.iv.i7 = phi i64 [ 0, %ff_sws_img_shift.exit ], [ %indvars.iv.next.i11, %ff_fmt_vshift.exit.i10 ]
  %35 = getelementptr inbounds nuw [4 x ptr], ptr %31, i64 0, i64 %indvars.iv.i7
  %36 = load ptr, ptr %35, align 8, !tbaa !75, !alias.scope !123
  %.not.i8 = icmp eq ptr %36, null
  br i1 %.not.i8, label %ff_sws_img_shift.exit13, label %37

37:                                               ; preds = %34
  %38 = tail call ptr @av_pix_fmt_desc_get(i32 noundef %33) #12, !noalias !123
  %39 = trunc i64 %indvars.iv.i7 to i32
  %40 = add i32 %39, -1
  %or.cond.i.i9 = icmp ult i32 %40, 2
  br i1 %or.cond.i.i9, label %41, label %ff_fmt_vshift.exit.i10

41:                                               ; preds = %37
  %42 = getelementptr inbounds nuw i8, ptr %38, i64 10
  %43 = load i8, ptr %42, align 2, !tbaa !105, !noalias !123
  %44 = zext i8 %43 to i32
  br label %ff_fmt_vshift.exit.i10

ff_fmt_vshift.exit.i10:                           ; preds = %41, %37
  %45 = phi i32 [ %44, %41 ], [ 0, %37 ]
  %46 = ashr i32 %2, %45
  %47 = getelementptr inbounds nuw [4 x i32], ptr %32, i64 0, i64 %indvars.iv.i7
  %48 = load i32, ptr %47, align 4, !tbaa !42, !alias.scope !123
  %49 = mul nsw i32 %46, %48
  %50 = sext i32 %49 to i64
  %51 = getelementptr inbounds i8, ptr %36, i64 %50
  store ptr %51, ptr %35, align 8, !tbaa !75, !alias.scope !123
  %indvars.iv.next.i11 = add nuw nsw i64 %indvars.iv.i7, 1
  %exitcond.not.i12 = icmp eq i64 %indvars.iv.next.i11, 4
  br i1 %exitcond.not.i12, label %ff_sws_img_shift.exit13, label %34, !llvm.loop !114

ff_sws_img_shift.exit13:                          ; preds = %34, %ff_fmt_vshift.exit.i10
  %52 = load ptr, ptr %10, align 8, !tbaa !75
  %53 = load i32, ptr %11, align 8, !tbaa !42
  %54 = load ptr, ptr %31, align 8, !tbaa !75
  %55 = load i32, ptr %32, align 8, !tbaa !42
  %56 = getelementptr inbounds nuw i8, ptr %4, i64 20
  %57 = load i32, ptr %56, align 4, !tbaa !17
  tail call void @ff_sws_lut3d_apply(ptr noundef %9, ptr noundef %52, i32 noundef %53, ptr noundef %54, i32 noundef %55, i32 noundef %57, i32 noundef %3) #12
  call void @llvm.lifetime.end.p0(i64 56, ptr nonnull %7) #12
  call void @llvm.lifetime.end.p0(i64 56, ptr nonnull %6) #12
  ret void
}